; Function Attrs: nounwind uwtable
define internal void @_connection_fini_callback(ptr noundef %0) #0 {
  %2 = alloca ptr, align 8
  %3 = alloca %struct.slurmdb_cluster_rec, align 8
  call void @llvm.lifetime.start.p0(i64 8, ptr nonnull %2) #7
  store ptr %0, ptr %2, align 8
  %4 = getelementptr inbounds nuw i8, ptr %0, i64 16
  %5 = tail call i32 @pthread_mutex_lock(ptr noundef nonnull %4) #7
  %.not = icmp eq i32 %5, 0
  br i1 %.not, label %8, label %6

6:                                                ; preds = %1
  %7 = tail call ptr @__errno_location() #8
  store i32 %5, ptr %7, align 4
  tail call void (ptr, ...) @fatal_abort(ptr noundef nonnull @.str.4, ptr noundef nonnull @__func__._connection_fini_callback) #9
  unreachable

8:                                                ; preds = %1
  %9 = getelementptr inbounds nuw i8, ptr %0, i64 8
  %10 = load ptr, ptr %9, align 8
  tail call void @slurm_persist_conn_destroy(ptr noundef %10) #7
  store ptr null, ptr %9, align 8
  %11 = tail call i32 @pthread_mutex_unlock(ptr noundef nonnull %4) #7
  %.not20 = icmp eq i32 %11, 0
  br i1 %.not20, label %14, label %12

12:                                               ; preds = %8
  %13 = tail call ptr @__errno_location() #8
  store i32 %11, ptr %13, align 4
  tail call void (ptr, ...) @fatal_abort(ptr noundef nonnull @.str.5, ptr noundef nonnull @__func__._connection_fini_callback) #9
  unreachable

14:                                               ; preds = %8
  %15 = load ptr, ptr %0, align 8
  %16 = getelementptr inbounds nuw i8, ptr %15, i64 88
  %17 = load i16, ptr %16, align 8
  %.not21 = icmp eq i16 %17, 0
  br i1 %.not21, label %.critedge, label %18

18:                                               ; preds = %14
  %19 = load i64, ptr @shutdown_time, align 8
  %.not22 = icmp eq i64 %19, 0
  br i1 %.not22, label %20, label %51

20:                                               ; preds = %18
  call void @llvm.lifetime.start.p0(i64 328, ptr nonnull %3) #7
  call void @llvm.memset.p0.i64(ptr noundef nonnull align 8 dereferenceable(328) %3, i8 0, i64 320, i1 false)
  %21 = getelementptr inbounds nuw i8, ptr %15, i64 40
  %22 = load ptr, ptr %21, align 8
  %23 = getelementptr inbounds nuw i8, ptr %3, i64 280
  store ptr %22, ptr %23, align 8
  %24 = getelementptr inbounds nuw i8, ptr %15, i64 80
  %25 = load ptr, ptr %24, align 8
  %26 = getelementptr inbounds nuw i8, ptr %3, i64 152
  store ptr %25, ptr %26, align 8
  %27 = zext i16 %17 to i32
  %28 = getelementptr inbounds nuw i8, ptr %3, i64 160
  store i32 %27, ptr %28, align 8
  %29 = getelementptr inbounds nuw i8, ptr %15, i64 168
  %30 = load i16, ptr %29, align 8
  %31 = getelementptr inbounds nuw i8, ptr %3, i64 304
  store i16 %30, ptr %31, align 8
  %32 = getelementptr inbounds nuw i8, ptr %0, i64 64
  %33 = load ptr, ptr %32, align 8
  %34 = getelementptr inbounds nuw i8, ptr %3, i64 320
  store ptr %33, ptr %34, align 8
  %35 = getelementptr inbounds nuw i8, ptr %15, i64 64
  %36 = load i16, ptr %35, align 8
  %37 = and i16 %36, 32
  %.not23 = icmp eq i16 %37, 0
  br i1 %.not23, label %40, label %38

38:                                               ; preds = %20
  %39 = getelementptr inbounds nuw i8, ptr %3, i64 232
  store i32 4096, ptr %39, align 8
  br label %40

40:                                               ; preds = %38, %20
  %41 = tail call i32 @get_log_level() #7
  %42 = icmp sgt i32 %41, 4
  br i1 %42, label %43, label %47

43:                                               ; preds = %40
  %44 = load ptr, ptr %0, align 8
  %45 = getelementptr inbounds nuw i8, ptr %44, i64 40
  %46 = load ptr, ptr %45, align 8
  tail call void (i32, ptr, ...) @log_var(i32 noundef 5, ptr noundef nonnull @.str.6, ptr noundef %46) #7
  br label %47

47:                                               ; preds = %43, %40
  %48 = getelementptr inbounds nuw i8, ptr %0, i64 56
  %49 = load ptr, ptr %48, align 8
  %50 = call i32 @clusteracct_storage_g_fini_ctld(ptr noundef %49, ptr noundef nonnull %3) #7
  call void @llvm.lifetime.end.p0(i64 328, ptr nonnull %3) #7
  br label %55

51:                                               ; preds = %18
  %52 = load ptr, ptr @slurmdbd_conf, align 8
  %53 = getelementptr inbounds nuw i8, ptr %52, i64 16
  %54 = load i16, ptr %53, align 8
  %.not24 = icmp ne i16 %54, 0
  br label %55

55:                                               ; preds = %51, %47
  %.1 = phi i1 [ false, %47 ], [ %.not24, %51 ]
  %56 = call i32 @pthread_mutex_lock(ptr noundef nonnull @registered_lock) #7
  %.not25 = icmp eq i32 %56, 0
  br i1 %.not25, label %59, label %57

57:                                               ; preds = %55
  %58 = tail call ptr @__errno_location() #8
  store i32 %56, ptr %58, align 4
  call void (ptr, ...) @fatal_abort(ptr noundef nonnull @.str.4, ptr noundef nonnull @__func__._connection_fini_callback) #9
  unreachable

59:                                               ; preds = %55
  %60 = load ptr, ptr @registered_clusters, align 8
  %61 = call i32 @list_delete_ptr(ptr noundef %60, ptr noundef nonnull %0) #7
  br i1 %.1, label %71, label %62

62:                                               ; preds = %59
  %63 = call i32 @pthread_mutex_unlock(ptr noundef nonnull @registered_lock) #7
  %.not26 = icmp eq i32 %63, 0
  br i1 %.not26, label %66, label %64

64:                                               ; preds = %62
  %65 = tail call ptr @__errno_location() #8
  store i32 %63, ptr %65, align 4
  call void (ptr, ...) @fatal_abort(ptr noundef nonnull @.str.5, ptr noundef nonnull @__func__._connection_fini_callback) #9
  unreachable

66:                                               ; preds = %62
  %67 = getelementptr inbounds nuw i8, ptr %0, i64 56
  %68 = load ptr, ptr %67, align 8
  %69 = call i32 @acct_storage_g_commit(ptr noundef %68, i1 noundef zeroext true) #7
  %70 = call i32 @acct_storage_g_close_connection(ptr noundef nonnull %67) #7
  br label %81

71:                                               ; preds = %59
  %72 = getelementptr inbounds nuw i8, ptr %0, i64 56
  %73 = load ptr, ptr %72, align 8
  %74 = call i32 @acct_storage_g_commit(ptr noundef %73, i1 noundef zeroext true) #7
  %75 = call i32 @acct_storage_g_close_connection(ptr noundef nonnull %72) #7
  %76 = call i32 @pthread_mutex_unlock(ptr noundef nonnull @registered_lock) #7
  %.not27 = icmp eq i32 %76, 0
  br i1 %.not27, label %81, label %77

77:                                               ; preds = %71
  %78 = tail call ptr @__errno_location() #8
  store i32 %76, ptr %78, align 4
  call void (ptr, ...) @fatal_abort(ptr noundef nonnull @.str.5, ptr noundef nonnull @__func__._connection_fini_callback) #9
  unreachable

.critedge:                                        ; preds = %14
  %79 = getelementptr inbounds nuw i8, ptr %0, i64 56
  %80 = tail call i32 @acct_storage_g_close_connection(ptr noundef nonnull %79) #7
  br label %81

81:                                               ; preds = %66, %71, %.critedge
  %82 = call i32 @pthread_mutex_destroy(ptr noundef nonnull %4) #7
  %.not28 = icmp eq i32 %82, 0
  br i1 %.not28, label %85, label %83

83:                                               ; preds = %81
  %84 = tail call ptr @__errno_location() #8
  store i32 %82, ptr %84, align 4
  call void (ptr, ...) @fatal_abort(ptr noundef nonnull @.str.7, ptr noundef nonnull @__func__._connection_fini_callback) #9
  unreachable

85:                                               ; preds = %81
  %86 = getelementptr inbounds nuw i8, ptr %0, i64 64
  call void @slurm_xfree(ptr noundef nonnull %86) #7
  call void @slurm_xfree(ptr noundef nonnull %2) #7
  call void @llvm.lifetime.end.p0(i64 8, ptr nonnull %2) #7
  ret void
}